; Function Attrs: mustprogress uwtable
define noundef ptr @Z3_mk_exists(ptr noundef %c, i32 noundef %weight, i32 noundef %num_patterns, ptr noundef %patterns, i32 noundef %num_decls, ptr noundef %types, ptr noundef %decl_names, ptr noundef %body) local_unnamed_addr #3 personality ptr @__gxx_personality_v0 {
entry:
  %agg.tmp.sroa.0.0.copyload.i = load ptr, ptr @_ZN6symbol4nullE, align 8
  %0 = atomicrmw xchg ptr @g_z3_log_enabled, i8 0 seq_cst, align 1
  %1 = and i8 %0, 1
  %tobool.i.not.i.i = icmp eq i8 %1, 0
  br i1 %tobool.i.not.i.i, label %if.end.i.i, label %if.then.i.i

if.then.i.i:                                      ; preds = %entry
  invoke void @_Z23log_Z3_mk_quantifier_exP11_Z3_contextbjP10_Z3_symbolS2_jPKP11_Z3_patternjPKP7_Z3_astjPKP8_Z3_sortPKS2_S8_(ptr noundef %c, i1 noundef zeroext false, i32 noundef %weight, ptr noundef %agg.tmp.sroa.0.0.copyload.i, ptr noundef %agg.tmp.sroa.0.0.copyload.i, i32 noundef %num_patterns, ptr noundef %patterns, i32 noundef 0, ptr noundef null, i32 noundef %num_decls, ptr noundef %types, ptr noundef %decl_names, ptr noundef %body)
          to label %if.end.i.i unwind label %lpad.thread.i.i

lpad.thread.i.i:                                  ; preds = %if.then7.i.i, %if.then.i.i
  %lpad.thr_comm22.i.i = landingpad { ptr, i32 }
          cleanup
  br label %if.then.i.i.i

lpad.i.i:                                         ; preds = %if.end.i.i
  %lpad.thr_comm.split-lp23.i.i = landingpad { ptr, i32 }
          cleanup
  br i1 %tobool.i.not.i.i, label %_ZN10z3_log_ctxD2Ev.exit.i.i, label %if.then.i.i.i

if.then.i.i.i:                                    ; preds = %lpad.i.i, %lpad.thread.i.i
  %lpad.phi26.i.i = phi { ptr, i32 } [ %lpad.thr_comm22.i.i, %lpad.thread.i.i ], [ %lpad.thr_comm.split-lp23.i.i, %lpad.i.i ]
  store atomic i8 1, ptr @g_z3_log_enabled seq_cst, align 1
  br label %_ZN10z3_log_ctxD2Ev.exit.i.i

_ZN10z3_log_ctxD2Ev.exit.i.i:                     ; preds = %if.then.i.i.i, %lpad.i.i
  %lpad.phi27.i.i = phi { ptr, i32 } [ %lpad.thr_comm.split-lp23.i.i, %lpad.i.i ], [ %lpad.phi26.i.i, %if.then.i.i.i ]
  resume { ptr, i32 } %lpad.phi27.i.i

if.end.i.i:                                       ; preds = %if.then.i.i, %entry
  %call4.i.i = invoke ptr @mk_quantifier_ex_core(ptr noundef %c, i1 noundef zeroext false, i32 noundef %weight, ptr noundef %agg.tmp.sroa.0.0.copyload.i, ptr noundef %agg.tmp.sroa.0.0.copyload.i, i32 noundef %num_patterns, ptr noundef %patterns, i32 noundef 0, ptr noundef null, i32 noundef %num_decls, ptr noundef %types, ptr noundef %decl_names, ptr noundef %body)
          to label %invoke.cont3.i.i unwind label %lpad.i.i

invoke.cont3.i.i:                                 ; preds = %if.end.i.i
  br i1 %tobool.i.not.i.i, label %Z3_mk_quantifier.exit, label %if.then7.i.i

if.then7.i.i:                                     ; preds = %invoke.cont3.i.i
  invoke void @_Z4SetRPv(ptr noundef %call4.i.i)
          to label %if.then.i17.i.i unwind label %lpad.thread.i.i

if.then.i17.i.i:                                  ; preds = %if.then7.i.i
  store atomic i8 1, ptr @g_z3_log_enabled seq_cst, align 1
  br label %Z3_mk_quantifier.exit

Z3_mk_quantifier.exit:                            ; preds = %invoke.cont3.i.i, %if.then.i17.i.i
  ret ptr %call4.i.i
}